ccopy_reg
_reconstructor
p0
(cgoogle.oauth2.credentials
Credentials
p1
c__builtin__
object
p2
Ntp3
Rp4
(dp5
S'_quota_project_id'
p6
NsS'_token_uri'
p7
Vhttps://oauth2.googleapis.com/token
p8
sS'_client_secret'
p9
Vg4eqc0Ws1GDLb8cbfs52nn55
p10
sS'_id_token'
p11
NsS'token'
p12
Vya29.ImC4B6PBe81rKz6GyNpAQe6Bbx2Nl-wAgR0wWm4qBGljInIwE05NgecTWgaHlD2x_2BXC8wQwzvQCo7ESwCTJU-GVDfs0PnrNlfajVF2s5xfjvLGyPlWySGFlDE_Zs7EkX0
p13
sS'_refresh_token'
p14
V1//0gzEjVnr1Gi0JCgYIARAAGBASNwF-L9Irv9CiVWs02BEoMftdvL9evOpw-UECy5wHjqRzYjXKdsGkJ56oSH1IKR_ccwuKEMn0HE0
p15
sS'_scopes'
p16
(lp17
S'https://www.googleapis.com/auth/gmail.send'
p18
asS'_client_id'
p19
V848700598730-7h3e3pmlbjs6gu4i59b9gceu254r01ef.apps.googleusercontent.com
p20
sS'expiry'
p21
cdatetime
datetime
p22
(S'\x07\xe4\x01\t\x08\x07#\x01)\xaa'
p23
tp24
Rp25
sb.