ccopy_reg
_reconstructor
p0
(cgoogle.oauth2.credentials
Credentials
p1
c__builtin__
object
p2
Ntp3
Rp4
(dp5
S'_quota_project_id'
p6
NsS'_token_uri'
p7
Vhttps://oauth2.googleapis.com/token
p8
sS'_client_secret'
p9
Vg4eqc0Ws1GDLb8cbfs52nn55
p10
sS'_id_token'
p11
NsS'token'
p12
Vya29.a0Ae4lvC3XAGNAsmgcDj_vYnR7FI6_SajGBUMowrom-Ba6b455a1veww9GqmHHr9FAvdV2YxwriIc70UXrVuvjUehHBuP1jOWlfKSwRiZueL-6YeQhxPDLaHkekt-0QMo4mIlah5aPgt5O7Ef9a5sFR3qviswHMNshAQs
p13
sS'_refresh_token'
p14
V1//0g7zuSmvdsNL1CgYIARAAGBASNwF-L9IrAoMqCBtwUOhkQe-auaX9AynQW5fDS7aTF-_4rH1eBsRqQ19c0yBlDv2HuGFMIT-Cs9I
p15
sS'_scopes'
p16
(lp17
S'https://www.googleapis.com/auth/gmail.send'
p18
asS'_client_id'
p19
V848700598730-7h3e3pmlbjs6gu4i59b9gceu254r01ef.apps.googleusercontent.com
p20
sS'expiry'
p21
cdatetime
datetime
p22
(S'\x07\xe4\x04\x10\x11+3\t\xe0O'
p23
tp24
Rp25
sb.